target datalayout = "e-m:e-p270:32:32-p271:32:32-p272:64:64-i64:64-i128:128-f80:128-n8:16:32:64-S128"
target triple = "x86_64-pc-linux-gnu"

; Function Attrs: nounwind uwtable
define dso_local void @merge_delta_qos_list(ptr noundef %0, ptr noundef %1) #0 {
  %3 = alloca ptr, align 8
  %4 = alloca ptr, align 8
  %5 = alloca ptr, align 8
  %6 = alloca ptr, align 8
  %7 = alloca ptr, align 8
  %8 = alloca ptr, align 8
  store ptr %0, ptr %3, align 8
  store ptr %1, ptr %4, align 8
  call void @llvm.lifetime.start.p0(i64 8, ptr %5) #8
  %9 = load ptr, ptr %3, align 8
  %10 = call ptr @slurm_list_iterator_create(ptr noundef %9)
  store ptr %10, ptr %5, align 8
  call void @llvm.lifetime.start.p0(i64 8, ptr %6) #8
  %11 = load ptr, ptr %4, align 8
  %12 = call ptr @slurm_list_iterator_create(ptr noundef %11)
  store ptr %12, ptr %6, align 8
  call void @llvm.lifetime.start.p0(i64 8, ptr %7) #8
  store ptr null, ptr %7, align 8
  call void @llvm.lifetime.start.p0(i64 8, ptr %8) #8
  store ptr null, ptr %8, align 8
  br label %13

13:                                               ; preds = %70, %2
  %14 = load ptr, ptr %6, align 8
  %15 = call ptr @slurm_list_next(ptr noundef %14)
  store ptr %15, ptr %7, align 8
  %16 = icmp ne ptr %15, null
  br i1 %16, label %17, label %71

17:                                               ; preds = %13
  %18 = load ptr, ptr %7, align 8
  %19 = getelementptr inbounds i8, ptr %18, i64 0
  %20 = load i8, ptr %19, align 1
  %21 = sext i8 %20 to i32
  %22 = icmp eq i32 %21, 45
  br i1 %22, label %23, label %40

23:                                               ; preds = %17
  br label %24

24:                                               ; preds = %37, %23
  %25 = load ptr, ptr %5, align 8
  %26 = call ptr @slurm_list_next(ptr noundef %25)
  store ptr %26, ptr %8, align 8
  %27 = icmp ne ptr %26, null
  br i1 %27, label %28, label %38

28:                                               ; preds = %24
  %29 = load ptr, ptr %8, align 8
  %30 = load ptr, ptr %7, align 8
  %31 = getelementptr inbounds i8, ptr %30, i64 1
  %32 = call i32 @slurm_xstrcmp(ptr noundef %29, ptr noundef %31)
  %33 = icmp ne i32 %32, 0
  br i1 %33, label %37, label %34

34:                                               ; preds = %28
  %35 = load ptr, ptr %5, align 8
  %36 = call i32 @slurm_list_delete_item(ptr noundef %35)
  br label %38

37:                                               ; preds = %28
  br label %24, !llvm.loop !15

38:                                               ; preds = %34, %24
  %39 = load ptr, ptr %5, align 8
  call void @slurm_list_iterator_reset(ptr noundef %39)
  br label %70

40:                                               ; preds = %17
  %41 = load ptr, ptr %7, align 8
  %42 = getelementptr inbounds i8, ptr %41, i64 0
  %43 = load i8, ptr %42, align 1
  %44 = sext i8 %43 to i32
  %45 = icmp eq i32 %44, 43
  br i1 %45, label %46, label %69

46:                                               ; preds = %40
  br label %47

47:                                               ; preds = %58, %46
  %48 = load ptr, ptr %5, align 8
  %49 = call ptr @slurm_list_next(ptr noundef %48)
  store ptr %49, ptr %8, align 8
  %50 = icmp ne ptr %49, null
  br i1 %50, label %51, label %59

51:                                               ; preds = %47
  %52 = load ptr, ptr %8, align 8
  %53 = load ptr, ptr %7, align 8
  %54 = getelementptr inbounds i8, ptr %53, i64 1
  %55 = call i32 @slurm_xstrcmp(ptr noundef %52, ptr noundef %54)
  %56 = icmp ne i32 %55, 0
  br i1 %56, label %58, label %57

57:                                               ; preds = %51
  br label %59

58:                                               ; preds = %51
  br label %47, !llvm.loop !16

59:                                               ; preds = %57, %47
  %60 = load ptr, ptr %8, align 8
  %61 = icmp ne ptr %60, null
  br i1 %61, label %67, label %62

62:                                               ; preds = %59
  %63 = load ptr, ptr %3, align 8
  %64 = load ptr, ptr %7, align 8
  %65 = getelementptr inbounds i8, ptr %64, i64 1
  %66 = call ptr @slurm_xstrdup(ptr noundef %65)
  call void @slurm_list_append(ptr noundef %63, ptr noundef %66)
  br label %67

67:                                               ; preds = %62, %59
  %68 = load ptr, ptr %5, align 8
  call void @slurm_list_iterator_reset(ptr noundef %68)
  br label %69

69:                                               ; preds = %67, %40
  br label %70

70:                                               ; preds = %69, %38
  br label %13, !llvm.loop !17

71:                                               ; preds = %13
  %72 = load ptr, ptr %6, align 8
  call void @slurm_list_iterator_destroy(ptr noundef %72)
  %73 = load ptr, ptr %5, align 8
  call void @slurm_list_iterator_destroy(ptr noundef %73)
  call void @llvm.lifetime.end.p0(i64 8, ptr %8) #8
  call void @llvm.lifetime.end.p0(i64 8, ptr %7) #8
  call void @llvm.lifetime.end.p0(i64 8, ptr %6) #8
  call void @llvm.lifetime.end.p0(i64 8, ptr %5) #8
  ret void
}