; Function Attrs: nounwind uwtable
define dso_local void @merge_delta_qos_list(ptr noundef %0, ptr noundef %1) local_unnamed_addr #0 {
  %3 = tail call ptr @slurm_list_iterator_create(ptr noundef %0) #12
  %4 = tail call ptr @slurm_list_iterator_create(ptr noundef %1) #12
  %5 = tail call ptr @slurm_list_next(ptr noundef %4) #12
  %.not28 = icmp eq ptr %5, null
  br i1 %.not28, label %._crit_edge, label %.lr.ph

.lr.ph:                                           ; preds = %2, %21
  %6 = phi ptr [ %22, %21 ], [ %5, %2 ]
  %7 = load i8, ptr %6, align 1
  switch i8 %7, label %21 [
    i8 45, label %.preheader
    i8 43, label %.preheader26
  ]

.preheader26:                                     ; preds = %.lr.ph
  %8 = getelementptr inbounds nuw i8, ptr %6, i64 1
  br label %16

.preheader:                                       ; preds = %.lr.ph
  %9 = getelementptr inbounds nuw i8, ptr %6, i64 1
  br label %10

10:                                               ; preds = %.preheader, %12
  %11 = tail call ptr @slurm_list_next(ptr noundef %3) #12
  %.not24 = icmp eq ptr %11, null
  br i1 %.not24, label %.sink.split, label %12

12:                                               ; preds = %10
  %13 = tail call i32 @slurm_xstrcmp(ptr noundef nonnull %11, ptr noundef nonnull %9) #12
  %.not25 = icmp eq i32 %13, 0
  br i1 %.not25, label %14, label %10, !llvm.loop !14

14:                                               ; preds = %12
  %15 = tail call i32 @slurm_list_delete_item(ptr noundef %3) #12
  br label %.sink.split

16:                                               ; preds = %.preheader26, %18
  %17 = tail call ptr @slurm_list_next(ptr noundef %3) #12
  %.not22 = icmp eq ptr %17, null
  br i1 %.not22, label %.critedge, label %18

18:                                               ; preds = %16
  %19 = tail call i32 @slurm_xstrcmp(ptr noundef nonnull %17, ptr noundef nonnull %8) #12
  %.not23 = icmp eq i32 %19, 0
  br i1 %.not23, label %.sink.split, label %16, !llvm.loop !15

.critedge:                                        ; preds = %16
  %20 = tail call ptr @slurm_xstrdup(ptr noundef nonnull %8) #12
  tail call void @slurm_list_append(ptr noundef %0, ptr noundef %20) #12
  br label %.sink.split

.sink.split:                                      ; preds = %18, %10, %.critedge, %14
  tail call void @slurm_list_iterator_reset(ptr noundef %3) #12
  br label %21

21:                                               ; preds = %.sink.split, %.lr.ph
  %22 = tail call ptr @slurm_list_next(ptr noundef %4) #12
  %.not = icmp eq ptr %22, null
  br i1 %.not, label %._crit_edge, label %.lr.ph, !llvm.loop !16

._crit_edge:                                      ; preds = %21, %2
  tail call void @slurm_list_iterator_destroy(ptr noundef %4) #12
  tail call void @slurm_list_iterator_destroy(ptr noundef %3) #12
  ret void
}